; ModuleID = '31/1716.c'
source_filename = "31/1716.c"
target datalayout = "e-m:e-p270:32:32-p271:32:32-p272:64:64-i64:64-f80:128-n8:16:32:64-S128"
target triple = "x86_64-pc-linux-gnu"

%struct.student = type { [100 x i8], [100 x i8], i8, i32, float, [100 x i8], %struct.student* }

@head = dso_local global %struct.student* null, align 8
@n = common dso_local global i32 0, align 4
@.str = private unnamed_addr constant [4 x i8] c"end\00", align 1
@.str.1 = private unnamed_addr constant [3 x i8] c"%s\00", align 1
@.str.2 = private unnamed_addr constant [15 x i8] c"%s %c %d %f %s\00", align 1
@.str.3 = private unnamed_addr constant [18 x i8] c"%s %s %c %d %g %s\00", align 1
@.str.4 = private unnamed_addr constant [2 x i8] c"\0A\00", align 1

; Function Attrs: noinline nounwind uwtable
define dso_local %struct.student* @creat() #0 {
  %1 = alloca %struct.student*, align 8
  %2 = alloca %struct.student*, align 8
  store i32 0, i32* @n, align 4
  %3 = call noalias i8* @malloc(i64 100) #4
  %4 = bitcast i8* %3 to %struct.student*
  store %struct.student* %4, %struct.student** %2, align 8
  store %struct.student* %4, %struct.student** %1, align 8
  br label %5

5:                                                ; preds = %50, %0
  %6 = load %struct.student*, %struct.student** %1, align 8
  %7 = getelementptr inbounds %struct.student, %struct.student* %6, i32 0, i32 0
  %8 = getelementptr inbounds [100 x i8], [100 x i8]* %7, i64 0, i64 0
  %9 = call i32 @strcmp(i8* %8, i8* getelementptr inbounds ([4 x i8], [4 x i8]* @.str, i64 0, i64 0)) #5
  %10 = icmp ne i32 %9, 0
  br i1 %10, label %11, label %51

11:                                               ; preds = %5
  %12 = load i32, i32* @n, align 4
  %13 = add nsw i32 %12, 1
  store i32 %13, i32* @n, align 4
  %14 = load i32, i32* @n, align 4
  %15 = icmp eq i32 %14, 1
  br i1 %15, label %16, label %19

16:                                               ; preds = %11
  %17 = load %struct.student*, %struct.student** %2, align 8
  %18 = getelementptr inbounds %struct.student, %struct.student* %17, i32 0, i32 6
  store %struct.student* null, %struct.student** %18, align 8
  br label %23

19:                                               ; preds = %11
  %20 = load %struct.student*, %struct.student** %2, align 8
  %21 = load %struct.student*, %struct.student** %1, align 8
  %22 = getelementptr inbounds %struct.student, %struct.student* %21, i32 0, i32 6
  store %struct.student* %20, %struct.student** %22, align 8
  br label %23

23:                                               ; preds = %19, %16
  %24 = load %struct.student*, %struct.student** %1, align 8
  store %struct.student* %24, %struct.student** %2, align 8
  %25 = call noalias i8* @malloc(i64 100) #4
  %26 = bitcast i8* %25 to %struct.student*
  store %struct.student* %26, %struct.student** %1, align 8
  %27 = load %struct.student*, %struct.student** %1, align 8
  %28 = getelementptr inbounds %struct.student, %struct.student* %27, i32 0, i32 0
  %29 = getelementptr inbounds [100 x i8], [100 x i8]* %28, i64 0, i64 0
  %30 = call i32 (i8*, ...) @__isoc99_scanf(i8* getelementptr inbounds ([3 x i8], [3 x i8]* @.str.1, i64 0, i64 0), i8* %29)
  %31 = load %struct.student*, %struct.student** %1, align 8
  %32 = getelementptr inbounds %struct.student, %struct.student* %31, i32 0, i32 0
  %33 = getelementptr inbounds [100 x i8], [100 x i8]* %32, i64 0, i64 0
  %34 = call i32 @strcmp(i8* %33, i8* getelementptr inbounds ([4 x i8], [4 x i8]* @.str, i64 0, i64 0)) #5
  %35 = icmp ne i32 %34, 0
  br i1 %35, label %36, label %50

36:                                               ; preds = %23
  %37 = load %struct.student*, %struct.student** %1, align 8
  %38 = getelementptr inbounds %struct.student, %struct.student* %37, i32 0, i32 1
  %39 = getelementptr inbounds [100 x i8], [100 x i8]* %38, i64 0, i64 0
  %40 = load %struct.student*, %struct.student** %1, align 8
  %41 = getelementptr inbounds %struct.student, %struct.student* %40, i32 0, i32 2
  %42 = load %struct.student*, %struct.student** %1, align 8
  %43 = getelementptr inbounds %struct.student, %struct.student* %42, i32 0, i32 3
  %44 = load %struct.student*, %struct.student** %1, align 8
  %45 = getelementptr inbounds %struct.student, %struct.student* %44, i32 0, i32 4
  %46 = load %struct.student*, %struct.student** %1, align 8
  %47 = getelementptr inbounds %struct.student, %struct.student* %46, i32 0, i32 5
  %48 = getelementptr inbounds [100 x i8], [100 x i8]* %47, i64 0, i64 0
  %49 = call i32 (i8*, ...) @__isoc99_scanf(i8* getelementptr inbounds ([15 x i8], [15 x i8]* @.str.2, i64 0, i64 0), i8* %39, i8* %41, i32* %43, float* %45, i8* %48)
  br label %50

50:                                               ; preds = %36, %23
  br label %5

51:                                               ; preds = %5
  %52 = load %struct.student*, %struct.student** %2, align 8
  store %struct.student* %52, %struct.student** @head, align 8
  %53 = load %struct.student*, %struct.student** @head, align 8
  ret %struct.student* %53
}

; Function Attrs: nounwind
declare dso_local noalias i8* @malloc(i64) #1

; Function Attrs: nounwind readonly
declare dso_local i32 @strcmp(i8*, i8*) #2

declare dso_local i32 @__isoc99_scanf(i8*, ...) #3

; Function Attrs: noinline nounwind uwtable
define dso_local void @main() #0 {
  %1 = alloca %struct.student*, align 8
  %2 = call %struct.student* @creat()
  store %struct.student* %2, %struct.student** %1, align 8
  %3 = load %struct.student*, %struct.student** %1, align 8
  %4 = icmp ne %struct.student* %3, null
  br i1 %4, label %5, label %44

5:                                                ; preds = %0
  br label %6

6:                                                ; preds = %38, %5
  %7 = load %struct.student*, %struct.student** %1, align 8
  %8 = getelementptr inbounds %struct.student, %struct.student* %7, i32 0, i32 0
  %9 = getelementptr inbounds [100 x i8], [100 x i8]* %8, i64 0, i64 0
  %10 = load %struct.student*, %struct.student** %1, align 8
  %11 = getelementptr inbounds %struct.student, %struct.student* %10, i32 0, i32 1
  %12 = getelementptr inbounds [100 x i8], [100 x i8]* %11, i64 0, i64 0
  %13 = load %struct.student*, %struct.student** %1, align 8
  %14 = getelementptr inbounds %struct.student, %struct.student* %13, i32 0, i32 2
  %15 = load i8, i8* %14, align 8
  %16 = sext i8 %15 to i32
  %17 = load %struct.student*, %struct.student** %1, align 8
  %18 = getelementptr inbounds %struct.student, %struct.student* %17, i32 0, i32 3
  %19 = load i32, i32* %18, align 4
  %20 = load %struct.student*, %struct.student** %1, align 8
  %21 = getelementptr inbounds %struct.student, %struct.student* %20, i32 0, i32 4
  %22 = load float, float* %21, align 8
  %23 = fpext float %22 to double
  %24 = load %struct.student*, %struct.student** %1, align 8
  %25 = getelementptr inbounds %struct.student, %struct.student* %24, i32 0, i32 5
  %26 = getelementptr inbounds [100 x i8], [100 x i8]* %25, i64 0, i64 0
  %27 = call i32 (i8*, ...) @printf(i8* getelementptr inbounds ([18 x i8], [18 x i8]* @.str.3, i64 0, i64 0), i8* %9, i8* %12, i32 %16, i32 %19, double %23, i8* %26)
  %28 = load %struct.student*, %struct.student** %1, align 8
  %29 = getelementptr inbounds %struct.student, %struct.student* %28, i32 0, i32 6
  %30 = load %struct.student*, %struct.student** %29, align 8
  store %struct.student* %30, %struct.student** %1, align 8
  %31 = load %struct.student*, %struct.student** %1, align 8
  %32 = getelementptr inbounds %struct.student, %struct.student* %31, i32 0, i32 6
  %33 = load %struct.student*, %struct.student** %32, align 8
  %34 = icmp ne %struct.student* %33, null
  br i1 %34, label %35, label %37

35:                                               ; preds = %6
  %36 = call i32 (i8*, ...) @printf(i8* getelementptr inbounds ([2 x i8], [2 x i8]* @.str.4, i64 0, i64 0))
  br label %37

37:                                               ; preds = %35, %6
  br label %38

38:                                               ; preds = %37
  %39 = load %struct.student*, %struct.student** %1, align 8
  %40 = getelementptr inbounds %struct.student, %struct.student* %39, i32 0, i32 6
  %41 = load %struct.student*, %struct.student** %40, align 8
  %42 = icmp ne %struct.student* %41, null
  br i1 %42, label %6, label %43

43:                                               ; preds = %38
  br label %44

44:                                               ; preds = %43, %0
  ret void
}

declare dso_local i32 @printf(i8*, ...) #3


!llvm.module.flags = !{!0}
!llvm.ident = !{!1}

!0 = !{i32 1, !"wchar_size", i32 4}
!1 = !{!"clang version 10.0.0-4ubuntu1 "}
